target datalayout = "e-m:e-p270:32:32-p271:32:32-p272:64:64-i64:64-i128:128-f80:128-n8:16:32:64-S128"
target triple = "x86_64-pc-linux-gnu"

@EnableJVMCI = external global i8, align 1
@PrintFlagsFinal = external global i8, align 1
@PrintFlagsRanges = external global i8, align 1
@tty = external global ptr, align 8

; Function Attrs: mustprogress nounwind uwtable
define hidden void @_Z14vmStructs_initv() #1 {
  ret void
}

; Function Attrs: mustprogress nounwind uwtable
define hidden noundef i32 @_Z13init_globals2v() #1 {
  %1 = alloca i32, align 4
  call void @_Z14universe2_initv()
  call void @_Z16javaClasses_initv()
  call void @_Z21interpreter_init_codev()
  call void @_Z23referenceProcessor_initv()
  call void @_Z16jni_handles_initv()
  call void @_Z14vmStructs_initv()
  call void @_Z16vtableStubs_initv()
  %2 = call noundef zeroext i1 @_Z19compilerOracle_initv()
  br i1 %2, label %4, label %3

3:                                                ; preds = %0
  store i32 -6, ptr %1, align 4
  br label %25

4:                                                ; preds = %0
  call void @_Z22dependencyContext_initv()
  call void @_Z17dependencies_initv()
  %5 = call noundef zeroext i1 @_Z18compileBroker_initv()
  br i1 %5, label %7, label %6

6:                                                ; preds = %4
  store i32 -6, ptr %1, align 4
  br label %25

7:                                                ; preds = %4
  %8 = load i8, ptr @EnableJVMCI, align 1
  %9 = trunc i8 %8 to i1
  br i1 %9, label %10, label %11

10:                                               ; preds = %7
  call void @_ZN5JVMCI18initialize_globalsEv()
  br label %11

11:                                               ; preds = %10, %7
  %12 = call noundef zeroext i1 @_Z18universe_post_initv()
  br i1 %12, label %14, label %13

13:                                               ; preds = %11
  store i32 -1, ptr %1, align 4
  br label %25

14:                                               ; preds = %11
  call void @_Z19compiler_stubs_initb(i1 noundef zeroext false)
  call void @_Z16final_stubs_initv()
  call void @_ZN13MethodHandles17generate_adaptersEv()
  %15 = load i8, ptr @PrintFlagsFinal, align 1
  %16 = trunc i8 %15 to i1
  br i1 %16, label %20, label %17

17:                                               ; preds = %14
  %18 = load i8, ptr @PrintFlagsRanges, align 1
  %19 = trunc i8 %18 to i1
  br i1 %19, label %20, label %24

20:                                               ; preds = %17, %14
  %21 = load ptr, ptr @tty, align 8
  %22 = load i8, ptr @PrintFlagsRanges, align 1
  %23 = trunc i8 %22 to i1
  call void @_ZN7JVMFlag10printFlagsEP12outputStreambbb(ptr noundef %21, i1 noundef zeroext false, i1 noundef zeroext %23, i1 noundef zeroext false)
  br label %24

24:                                               ; preds = %20, %17
  store i32 0, ptr %1, align 4
  br label %25

25:                                               ; preds = %24, %13, %6, %3
  %26 = load i32, ptr %1, align 4
  ret i32 %26
}