; Function Attrs: mustprogress nounwind uwtable
define hidden noundef range(i32 -6, 1) i32 @_Z13init_globals2v() local_unnamed_addr #1 {
  tail call void @_Z14universe2_initv() #4
  tail call void @_Z16javaClasses_initv() #4
  tail call void @_Z21interpreter_init_codev() #4
  tail call void @_Z23referenceProcessor_initv() #4
  tail call void @_Z16jni_handles_initv() #4
  tail call void @_Z16vtableStubs_initv() #4
  %1 = tail call noundef zeroext i1 @_Z19compilerOracle_initv() #4
  br i1 %1, label %2, label %14

2:                                                ; preds = %0
  tail call void @_Z22dependencyContext_initv() #4
  tail call void @_Z17dependencies_initv() #4
  %3 = tail call noundef zeroext i1 @_Z18compileBroker_initv() #4
  br i1 %3, label %4, label %14

4:                                                ; preds = %2
  %5 = load i8, ptr @EnableJVMCI, align 1
  %6 = trunc i8 %5 to i1
  br i1 %6, label %7, label %8

7:                                                ; preds = %4
  tail call void @_ZN5JVMCI18initialize_globalsEv() #4
  br label %8

8:                                                ; preds = %7, %4
  %9 = tail call noundef zeroext i1 @_Z18universe_post_initv() #4
  br i1 %9, label %10, label %14

10:                                               ; preds = %8
  tail call void @_Z19compiler_stubs_initb(i1 noundef zeroext false) #4
  tail call void @_Z16final_stubs_initv() #4
  tail call void @_ZN13MethodHandles17generate_adaptersEv() #4
  %11 = load i8, ptr @PrintFlagsFinal, align 1
  %12 = trunc i8 %11 to i1
  %.pre = load i8, ptr @PrintFlagsRanges, align 1
  %.pre1 = trunc i8 %.pre to i1
  %brmerge = select i1 %12, i1 true, i1 %.pre1
  br i1 %brmerge, label %._crit_edge, label %14

._crit_edge:                                      ; preds = %10
  %not. = xor i1 %12, true
  %.pre1.mux = select i1 %not., i1 true, i1 %.pre1
  %13 = load ptr, ptr @tty, align 8
  tail call void @_ZN7JVMFlag10printFlagsEP12outputStreambbb(ptr noundef %13, i1 noundef zeroext false, i1 noundef zeroext %.pre1.mux, i1 noundef zeroext false) #4
  br label %14

14:                                               ; preds = %10, %._crit_edge, %8, %2, %0
  %.0 = phi i32 [ -6, %0 ], [ -6, %2 ], [ -1, %8 ], [ 0, %._crit_edge ], [ 0, %10 ]
  ret i32 %.0
}